target datalayout = "e-m:e-p270:32:32-p271:32:32-p272:64:64-i64:64-i128:128-f80:128-n8:16:32:64-S128"
target triple = "x86_64-pc-linux-gnu"

%struct.Vec_Int_t_ = type { i32, i32, ptr }
%struct.Abc_Ntk_t_ = type { i32, i32, ptr, ptr, ptr, ptr, ptr, ptr, ptr, ptr, ptr, ptr, ptr, [11 x i32], i32, i32, i32, i32, ptr, i32, ptr, ptr, i32, i32, i32, double, i32, %struct.Vec_Int_t_, ptr, ptr, ptr, ptr, ptr, float, i32, ptr, ptr, ptr, ptr, ptr, ptr, ptr, ptr, ptr, ptr, ptr, ptr, ptr, ptr, ptr, ptr, ptr, ptr, ptr, ptr, ptr }
%struct.Aig_Man_t_ = type { ptr, ptr, ptr, ptr, ptr, ptr, ptr, %struct.Aig_Obj_t_, i32, i32, i32, i32, i32, i32, [7 x i32], i32, ptr, i32, ptr, i32, ptr, i32, i32, i32, ptr, i32, i32, i32, i32, i32, ptr, ptr, i32, ptr, ptr, i32, ptr, ptr, i32, i32, i32, ptr, ptr, ptr, ptr, ptr, ptr, ptr, ptr, ptr, ptr, ptr, ptr, ptr, ptr, i32, ptr, ptr, ptr, ptr, i32, i64, i64, i64, ptr, ptr }
%struct.Aig_Obj_t_ = type { %union.anon, ptr, ptr, i64, i32, i32, %union.anon.0 }
%union.anon = type { ptr }
%union.anon.0 = type { ptr }

; Function Attrs: nounwind uwtable
define ptr @Abc_NtkDarUnfold2(ptr noundef %0, i32 noundef %1, i32 noundef %2, i32 noundef %3, i32 noundef %4, i32 noundef %5, i32 noundef %6) #0 {
  %8 = alloca ptr, align 8
  %9 = alloca ptr, align 8
  %10 = alloca i32, align 4
  %11 = alloca i32, align 4
  %12 = alloca i32, align 4
  %13 = alloca i32, align 4
  %14 = alloca i32, align 4
  %15 = alloca i32, align 4
  %16 = alloca ptr, align 8
  %17 = alloca ptr, align 8
  %18 = alloca ptr, align 8
  %19 = alloca i32, align 4
  store ptr %0, ptr %9, align 8
  store i32 %1, ptr %10, align 4
  store i32 %2, ptr %11, align 4
  store i32 %3, ptr %12, align 4
  store i32 %4, ptr %13, align 4
  store i32 %5, ptr %14, align 4
  store i32 %6, ptr %15, align 4
  store ptr null, ptr %18, align 8
  store i32 0, ptr %19, align 4
  %20 = load ptr, ptr %9, align 8
  %21 = call ptr @Abc_NtkToDar(ptr noundef %20, i32 noundef 0, i32 noundef 1)
  store ptr %21, ptr %17, align 8
  %22 = load ptr, ptr %17, align 8
  %23 = icmp eq ptr %22, null
  br i1 %23, label %24, label %25

24:                                               ; preds = %7
  store ptr null, ptr %8, align 8
  br label %59

25:                                               ; preds = %7
  %26 = load i32, ptr %13, align 4
  %27 = icmp ne i32 %26, 0
  br i1 %27, label %28, label %29

28:                                               ; preds = %25
  br label %37

29:                                               ; preds = %25
  %30 = load ptr, ptr %17, align 8
  store ptr %30, ptr %18, align 8
  %31 = load i32, ptr %10, align 4
  %32 = load i32, ptr %11, align 4
  %33 = load i32, ptr %12, align 4
  %34 = load i32, ptr %14, align 4
  %35 = load i32, ptr %15, align 4
  %36 = call ptr @Saig_ManDupUnfoldConstrsFunc2(ptr noundef %30, i32 noundef %31, i32 noundef %32, i32 noundef %33, i32 noundef %34, i32 noundef %35, ptr noundef %19)
  store ptr %36, ptr %17, align 8
  br label %37

37:                                               ; preds = %29, %28
  %38 = load ptr, ptr %18, align 8
  call void @Aig_ManStop(ptr noundef %38)
  %39 = load ptr, ptr %17, align 8
  %40 = icmp eq ptr %39, null
  br i1 %40, label %41, label %42

41:                                               ; preds = %37
  store ptr null, ptr %8, align 8
  br label %59

42:                                               ; preds = %37
  %43 = load ptr, ptr %17, align 8
  %44 = call ptr @Abc_NtkFromAigPhase(ptr noundef %43)
  store ptr %44, ptr %16, align 8
  %45 = load ptr, ptr %17, align 8
  %46 = getelementptr inbounds %struct.Aig_Man_t_, ptr %45, i32 0, i32 0
  %47 = load ptr, ptr %46, align 8
  %48 = call ptr @Extra_UtilStrsav(ptr noundef %47)
  %49 = load ptr, ptr %16, align 8
  %50 = getelementptr inbounds %struct.Abc_Ntk_t_, ptr %49, i32 0, i32 2
  store ptr %48, ptr %50, align 8
  %51 = load ptr, ptr %17, align 8
  %52 = getelementptr inbounds %struct.Aig_Man_t_, ptr %51, i32 0, i32 1
  %53 = load ptr, ptr %52, align 8
  %54 = call ptr @Extra_UtilStrsav(ptr noundef %53)
  %55 = load ptr, ptr %16, align 8
  %56 = getelementptr inbounds %struct.Abc_Ntk_t_, ptr %55, i32 0, i32 3
  store ptr %54, ptr %56, align 8
  %57 = load ptr, ptr %17, align 8
  call void @Aig_ManStop(ptr noundef %57)
  %58 = load ptr, ptr %16, align 8
  store ptr %58, ptr %8, align 8
  br label %59

59:                                               ; preds = %42, %41, %24
  %60 = load ptr, ptr %8, align 8
  ret ptr %60
}