; Function Attrs: nounwind uwtable
define noundef ptr @Abc_NtkDarUnfold2(ptr noundef %0, i32 noundef %1, i32 noundef %2, i32 noundef %3, i32 noundef %4, i32 noundef %5, i32 noundef %6) local_unnamed_addr #1 {
  %8 = alloca i32, align 4
  store i32 0, ptr %8, align 4
  %9 = tail call ptr @Abc_NtkToDar(ptr noundef %0, i32 noundef 0, i32 noundef 1)
  %10 = icmp eq ptr %9, null
  br i1 %10, label %24, label %11

11:                                               ; preds = %7
  %.not = icmp eq i32 %4, 0
  br i1 %.not, label %12, label %.thread

.thread:                                          ; preds = %11
  tail call void @Aig_ManStop(ptr noundef null) #19
  br label %15

12:                                               ; preds = %11
  %13 = call ptr @Saig_ManDupUnfoldConstrsFunc2(ptr noundef nonnull %9, i32 noundef %1, i32 noundef %2, i32 noundef %3, i32 noundef %5, i32 noundef %6, ptr noundef nonnull %8) #19
  call void @Aig_ManStop(ptr noundef nonnull %9) #19
  %14 = icmp eq ptr %13, null
  br i1 %14, label %24, label %15

15:                                               ; preds = %.thread, %12
  %.01823 = phi ptr [ %9, %.thread ], [ %13, %12 ]
  %16 = call ptr @Abc_NtkFromAigPhase(ptr noundef nonnull %.01823)
  %17 = load ptr, ptr %.01823, align 8
  %18 = call ptr @Extra_UtilStrsav(ptr noundef %17) #19
  %19 = getelementptr inbounds nuw i8, ptr %16, i64 8
  store ptr %18, ptr %19, align 8
  %20 = getelementptr inbounds nuw i8, ptr %.01823, i64 8
  %21 = load ptr, ptr %20, align 8
  %22 = call ptr @Extra_UtilStrsav(ptr noundef %21) #19
  %23 = getelementptr inbounds nuw i8, ptr %16, i64 16
  store ptr %22, ptr %23, align 8
  call void @Aig_ManStop(ptr noundef nonnull %.01823) #19
  br label %24

24:                                               ; preds = %12, %7, %15
  %.019 = phi ptr [ %16, %15 ], [ null, %7 ], [ null, %12 ]
  ret ptr %.019
}